target datalayout = "e-m:e-p270:32:32-p271:32:32-p272:64:64-i64:64-i128:128-f80:128-n8:16:32:64-S128"
target triple = "x86_64-pc-linux-gnu"

%struct.Abc_Obj_t_ = type { ptr, ptr, i32, i32, %struct.Vec_Int_t_, %struct.Vec_Int_t_, %union.anon.1, %union.anon.2 }
%struct.Vec_Int_t_ = type { i32, i32, ptr }
%union.anon.1 = type { ptr }
%union.anon.2 = type { ptr }
%struct.Vec_Ptr_t_ = type { i32, i32, ptr }
%struct.Abc_Ntk_t_ = type { i32, i32, ptr, ptr, ptr, ptr, ptr, ptr, ptr, ptr, ptr, ptr, ptr, [11 x i32], i32, i32, i32, i32, ptr, i32, ptr, ptr, i32, i32, i32, double, i32, %struct.Vec_Int_t_, ptr, ptr, ptr, ptr, ptr, float, i32, ptr, ptr, ptr, ptr, ptr, ptr, ptr, ptr, ptr, ptr, ptr, ptr, ptr, ptr, ptr, ptr, ptr, ptr, ptr, ptr, ptr }
%struct.Aig_Man_t_ = type { ptr, ptr, ptr, ptr, ptr, ptr, ptr, %struct.Aig_Obj_t_, i32, i32, i32, i32, i32, i32, [7 x i32], i32, ptr, i32, ptr, i32, ptr, i32, i32, i32, ptr, i32, i32, i32, i32, i32, ptr, ptr, i32, ptr, ptr, i32, ptr, ptr, i32, i32, i32, ptr, ptr, ptr, ptr, ptr, ptr, ptr, ptr, ptr, ptr, ptr, ptr, ptr, ptr, i32, ptr, ptr, ptr, ptr, i32, i64, i64, i64, ptr, ptr }
%struct.Aig_Obj_t_ = type { %union.anon, ptr, ptr, i64, i32, i32, %union.anon.0 }
%union.anon = type { ptr }
%union.anon.0 = type { ptr }
%struct.Ssw_Pars_t_ = type { i32, i32, i32, i32, i32, i32, i32, i32, i32, i32, i32, i32, i32, i32, i32, i32, i32, i32, i32, i32, i32, i32, i32, i32, i32, i32, i32, i32, i32, i32, i32, i32, i32, i32, i32, i32, i32, i32, i32, i32, ptr, ptr }

; Function Attrs: nounwind uwtable
define internal ptr @Vec_PtrEntry(ptr noundef %0, i32 noundef %1) #0 {
  %3 = alloca ptr, align 8
  %4 = alloca i32, align 4
  store ptr %0, ptr %3, align 8
  store i32 %1, ptr %4, align 4
  %5 = load ptr, ptr %3, align 8
  %6 = getelementptr inbounds %struct.Vec_Ptr_t_, ptr %5, i32 0, i32 2
  %7 = load ptr, ptr %6, align 8
  %8 = load i32, ptr %4, align 4
  %9 = sext i32 %8 to i64
  %10 = getelementptr inbounds ptr, ptr %7, i64 %9
  %11 = load ptr, ptr %10, align 8
  ret ptr %11
}

; Function Attrs: nounwind uwtable
define internal void @Abc_LatchSetInit0(ptr noundef %0) #0 {
  %2 = alloca ptr, align 8
  store ptr %0, ptr %2, align 8
  %3 = load ptr, ptr %2, align 8
  %4 = getelementptr inbounds %struct.Abc_Obj_t_, ptr %3, i32 0, i32 6
  %5 = inttoptr i64 1 to ptr
  store ptr %5, ptr %4, align 8
  ret void
}

; Function Attrs: nounwind uwtable
define internal i32 @Abc_ObjIsLatch(ptr noundef %0) #0 {
  %2 = alloca ptr, align 8
  store ptr %0, ptr %2, align 8
  %3 = load ptr, ptr %2, align 8
  %4 = getelementptr inbounds %struct.Abc_Obj_t_, ptr %3, i32 0, i32 3
  %5 = load i32, ptr %4, align 4
  %6 = and i32 %5, 15
  %7 = icmp eq i32 %6, 8
  %8 = zext i1 %7 to i32
  ret i32 %8
}

; Function Attrs: nounwind uwtable
define internal ptr @Abc_NtkBox(ptr noundef %0, i32 noundef %1) #0 {
  %3 = alloca ptr, align 8
  %4 = alloca i32, align 4
  store ptr %0, ptr %3, align 8
  store i32 %1, ptr %4, align 4
  %5 = load ptr, ptr %3, align 8
  %6 = getelementptr inbounds %struct.Abc_Ntk_t_, ptr %5, i32 0, i32 11
  %7 = load ptr, ptr %6, align 8
  %8 = load i32, ptr %4, align 4
  %9 = call ptr @Vec_PtrEntry(ptr noundef %7, i32 noundef %8)
  ret ptr %9
}

; Function Attrs: nounwind uwtable
define internal i32 @Vec_PtrSize(ptr noundef %0) #0 {
  %2 = alloca ptr, align 8
  store ptr %0, ptr %2, align 8
  %3 = load ptr, ptr %2, align 8
  %4 = getelementptr inbounds %struct.Vec_Ptr_t_, ptr %3, i32 0, i32 1
  %5 = load i32, ptr %4, align 4
  ret i32 %5
}

; Function Attrs: nounwind uwtable
define internal i32 @Abc_NtkLatchNum(ptr noundef %0) #0 {
  %2 = alloca ptr, align 8
  store ptr %0, ptr %2, align 8
  %3 = load ptr, ptr %2, align 8
  %4 = getelementptr inbounds %struct.Abc_Ntk_t_, ptr %3, i32 0, i32 13
  %5 = getelementptr inbounds [11 x i32], ptr %4, i64 0, i64 8
  %6 = load i32, ptr %5, align 8
  ret i32 %6
}

; Function Attrs: nounwind uwtable
define internal i32 @Aig_ManRegNum(ptr noundef %0) #0 {
  %2 = alloca ptr, align 8
  store ptr %0, ptr %2, align 8
  %3 = load ptr, ptr %2, align 8
  %4 = getelementptr inbounds %struct.Aig_Man_t_, ptr %3, i32 0, i32 8
  %5 = load i32, ptr %4, align 8
  ret i32 %5
}

; Function Attrs: nounwind uwtable
define ptr @Abc_NtkDarLcorrNew(ptr noundef %0, i32 noundef %1, i32 noundef %2, i32 noundef %3, i32 noundef %4) #0 {
  %6 = alloca ptr, align 8
  %7 = alloca ptr, align 8
  %8 = alloca i32, align 4
  %9 = alloca i32, align 4
  %10 = alloca i32, align 4
  %11 = alloca i32, align 4
  %12 = alloca %struct.Ssw_Pars_t_, align 8
  %13 = alloca ptr, align 8
  %14 = alloca ptr, align 8
  %15 = alloca ptr, align 8
  %16 = alloca ptr, align 8
  %17 = alloca ptr, align 8
  %18 = alloca i32, align 4
  store ptr %0, ptr %7, align 8
  store i32 %1, ptr %8, align 4
  store i32 %2, ptr %9, align 4
  store i32 %3, ptr %10, align 4
  store i32 %4, ptr %11, align 4
  store ptr %12, ptr %13, align 8
  store ptr null, ptr %16, align 8
  %19 = load ptr, ptr %7, align 8
  %20 = call ptr @Abc_NtkToDar(ptr noundef %19, i32 noundef 0, i32 noundef 1)
  store ptr %20, ptr %14, align 8
  %21 = load ptr, ptr %14, align 8
  %22 = icmp eq ptr %21, null
  br i1 %22, label %23, label %24

23:                                               ; preds = %5
  store ptr null, ptr %6, align 8
  br label %89

24:                                               ; preds = %5
  %25 = load ptr, ptr %13, align 8
  call void @Ssw_ManSetDefaultParams(ptr noundef %25)
  %26 = load ptr, ptr %13, align 8
  %27 = getelementptr inbounds %struct.Ssw_Pars_t_, ptr %26, i32 0, i32 33
  store i32 1, ptr %27, align 4
  %28 = load i32, ptr %9, align 4
  %29 = load ptr, ptr %13, align 8
  %30 = getelementptr inbounds %struct.Ssw_Pars_t_, ptr %29, i32 0, i32 8
  store i32 %28, ptr %30, align 8
  %31 = load i32, ptr %8, align 4
  %32 = load ptr, ptr %13, align 8
  %33 = getelementptr inbounds %struct.Ssw_Pars_t_, ptr %32, i32 0, i32 34
  store i32 %31, ptr %33, align 8
  %34 = load i32, ptr %10, align 4
  %35 = load ptr, ptr %13, align 8
  %36 = getelementptr inbounds %struct.Ssw_Pars_t_, ptr %35, i32 0, i32 16
  store i32 %34, ptr %36, align 8
  %37 = load i32, ptr %11, align 4
  %38 = load ptr, ptr %13, align 8
  %39 = getelementptr inbounds %struct.Ssw_Pars_t_, ptr %38, i32 0, i32 28
  store i32 %37, ptr %39, align 8
  %40 = load ptr, ptr %14, align 8
  store ptr %40, ptr %15, align 8
  %41 = load ptr, ptr %13, align 8
  %42 = call ptr @Ssw_SignalCorrespondence(ptr noundef %40, ptr noundef %41)
  store ptr %42, ptr %14, align 8
  %43 = load ptr, ptr %15, align 8
  call void @Aig_ManStop(ptr noundef %43)
  %44 = load ptr, ptr %14, align 8
  %45 = icmp ne ptr %44, null
  br i1 %45, label %46, label %87

46:                                               ; preds = %24
  %47 = load ptr, ptr %14, align 8
  %48 = call i32 @Aig_ManRegNum(ptr noundef %47)
  %49 = load ptr, ptr %7, align 8
  %50 = call i32 @Abc_NtkLatchNum(ptr noundef %49)
  %51 = icmp slt i32 %48, %50
  br i1 %51, label %52, label %56

52:                                               ; preds = %46
  %53 = load ptr, ptr %7, align 8
  %54 = load ptr, ptr %14, align 8
  %55 = call ptr @Abc_NtkFromDarSeqSweep(ptr noundef %53, ptr noundef %54)
  store ptr %55, ptr %16, align 8
  br label %85

56:                                               ; preds = %46
  %57 = load ptr, ptr %7, align 8
  %58 = load ptr, ptr %14, align 8
  %59 = call ptr @Abc_NtkFromDar(ptr noundef %57, ptr noundef %58)
  store ptr %59, ptr %16, align 8
  store i32 0, ptr %18, align 4
  br label %60

60:                                               ; preds = %81, %56
  %61 = load i32, ptr %18, align 4
  %62 = load ptr, ptr %16, align 8
  %63 = getelementptr inbounds %struct.Abc_Ntk_t_, ptr %62, i32 0, i32 11
  %64 = load ptr, ptr %63, align 8
  %65 = call i32 @Vec_PtrSize(ptr noundef %64)
  %66 = icmp slt i32 %61, %65
  br i1 %66, label %67, label %71

67:                                               ; preds = %60
  %68 = load ptr, ptr %16, align 8
  %69 = load i32, ptr %18, align 4
  %70 = call ptr @Abc_NtkBox(ptr noundef %68, i32 noundef %69)
  store ptr %70, ptr %17, align 8
  br label %71

71:                                               ; preds = %67, %60
  %72 = phi i1 [ false, %60 ], [ true, %67 ]
  br i1 %72, label %73, label %84

73:                                               ; preds = %71
  %74 = load ptr, ptr %17, align 8
  %75 = call i32 @Abc_ObjIsLatch(ptr noundef %74)
  %76 = icmp ne i32 %75, 0
  br i1 %76, label %78, label %77

77:                                               ; preds = %73
  br label %80

78:                                               ; preds = %73
  %79 = load ptr, ptr %17, align 8
  call void @Abc_LatchSetInit0(ptr noundef %79)
  br label %80

80:                                               ; preds = %78, %77
  br label %81

81:                                               ; preds = %80
  %82 = load i32, ptr %18, align 4
  %83 = add nsw i32 %82, 1
  store i32 %83, ptr %18, align 4
  br label %60, !llvm.loop !88

84:                                               ; preds = %71
  br label %85

85:                                               ; preds = %84, %52
  %86 = load ptr, ptr %14, align 8
  call void @Aig_ManStop(ptr noundef %86)
  br label %87

87:                                               ; preds = %85, %24
  %88 = load ptr, ptr %16, align 8
  store ptr %88, ptr %6, align 8
  br label %89

89:                                               ; preds = %87, %23
  %90 = load ptr, ptr %6, align 8
  ret ptr %90
}