; Function Attrs: nounwind uwtable
define ptr @Abc_NtkDarLcorrNew(ptr noundef %0, i32 noundef %1, i32 noundef %2, i32 noundef %3, i32 noundef %4) local_unnamed_addr #1 {
  %6 = alloca %struct.Ssw_Pars_t_, align 8
  %7 = tail call ptr @Abc_NtkToDar(ptr noundef %0, i32 noundef 0, i32 noundef 1)
  %8 = icmp eq ptr %7, null
  br i1 %8, label %41, label %9

9:                                                ; preds = %5
  call void @Ssw_ManSetDefaultParams(ptr noundef nonnull %6) #19
  %10 = getelementptr inbounds nuw i8, ptr %6, i64 132
  store i32 1, ptr %10, align 4
  %11 = getelementptr inbounds nuw i8, ptr %6, i64 32
  store i32 %2, ptr %11, align 8
  %12 = getelementptr inbounds nuw i8, ptr %6, i64 136
  store i32 %1, ptr %12, align 8
  %13 = getelementptr inbounds nuw i8, ptr %6, i64 64
  store i32 %3, ptr %13, align 8
  %14 = getelementptr inbounds nuw i8, ptr %6, i64 112
  store i32 %4, ptr %14, align 8
  %15 = call ptr @Ssw_SignalCorrespondence(ptr noundef nonnull %7, ptr noundef nonnull %6) #19
  call void @Aig_ManStop(ptr noundef nonnull %7) #19
  %.not = icmp eq ptr %15, null
  br i1 %.not, label %41, label %16

16:                                               ; preds = %9
  %17 = getelementptr i8, ptr %15, i64 104
  %.val39 = load i32, ptr %17, align 8
  %18 = getelementptr i8, ptr %0, i64 128
  %.val38 = load i32, ptr %18, align 8
  %19 = icmp slt i32 %.val39, %.val38
  br i1 %19, label %20, label %22

20:                                               ; preds = %16
  %21 = call ptr @Abc_NtkFromDarSeqSweep(ptr noundef nonnull %0, ptr noundef nonnull %15)
  br label %.critedge

22:                                               ; preds = %16
  %23 = call ptr @Abc_NtkFromDar(ptr noundef nonnull %0, ptr noundef nonnull %15)
  %24 = getelementptr inbounds nuw i8, ptr %23, i64 80
  %25 = load ptr, ptr %24, align 8
  %26 = getelementptr i8, ptr %25, i64 4
  %.val41 = load i32, ptr %26, align 4
  %27 = icmp sgt i32 %.val41, 0
  br i1 %27, label %.lr.ph, label %.critedge

.lr.ph:                                           ; preds = %22, %36
  %28 = phi ptr [ %37, %36 ], [ %25, %22 ]
  %indvars.iv = phi i64 [ %indvars.iv.next, %36 ], [ 0, %22 ]
  %29 = getelementptr i8, ptr %28, i64 8
  %.val36.val = load ptr, ptr %29, align 8
  %30 = getelementptr inbounds nuw ptr, ptr %.val36.val, i64 %indvars.iv
  %31 = load ptr, ptr %30, align 8
  %32 = getelementptr i8, ptr %31, i64 20
  %.val37 = load i32, ptr %32, align 4
  %33 = and i32 %.val37, 15
  %.not40 = icmp eq i32 %33, 8
  br i1 %.not40, label %34, label %36

34:                                               ; preds = %.lr.ph
  %35 = getelementptr inbounds nuw i8, ptr %31, i64 56
  store ptr inttoptr (i64 1 to ptr), ptr %35, align 8
  %.pre = load ptr, ptr %24, align 8
  br label %36

36:                                               ; preds = %34, %.lr.ph
  %37 = phi ptr [ %.pre, %34 ], [ %28, %.lr.ph ]
  %indvars.iv.next = add nuw nsw i64 %indvars.iv, 1
  %38 = getelementptr i8, ptr %37, i64 4
  %.val = load i32, ptr %38, align 4
  %39 = sext i32 %.val to i64
  %40 = icmp slt i64 %indvars.iv.next, %39
  br i1 %40, label %.lr.ph, label %.critedge, !llvm.loop !89

.critedge:                                        ; preds = %36, %22, %20
  %.1 = phi ptr [ %21, %20 ], [ %23, %22 ], [ %23, %36 ]
  call void @Aig_ManStop(ptr noundef nonnull %15) #19
  br label %41

41:                                               ; preds = %9, %.critedge, %5
  %.031 = phi ptr [ null, %5 ], [ %.1, %.critedge ], [ null, %9 ]
  ret ptr %.031
}